target datalayout = "e-m:e-p270:32:32-p271:32:32-p272:64:64-i64:64-i128:128-f80:128-n8:16:32:64-S128"
target triple = "x86_64-pc-linux-gnu"

%struct._stmt = type { i32, %union.anon.11, i32, i32, i32, i32 }
%union.anon.11 = type { %struct.anon.12 }
%struct.anon.12 = type { ptr, ptr, ptr, ptr, ptr, ptr, ptr }
%struct.anon.21 = type { ptr, ptr, ptr, ptr, ptr }

@PyExc_ValueError = external global ptr, align 8
@.str.15 = private unnamed_addr constant [35 x i8] c"field 'target' is required for For\00", align 1
@.str.16 = private unnamed_addr constant [33 x i8] c"field 'iter' is required for For\00", align 1

; Function Attrs: nounwind uwtable
define hidden ptr @_PyAST_For(ptr noundef %0, ptr noundef %1, ptr noundef %2, ptr noundef %3, ptr noundef %4, i32 noundef %5, i32 noundef %6, i32 noundef %7, i32 noundef %8, ptr noundef %9) #0 {
  %11 = alloca ptr, align 8
  %12 = alloca ptr, align 8
  %13 = alloca ptr, align 8
  %14 = alloca ptr, align 8
  %15 = alloca ptr, align 8
  %16 = alloca ptr, align 8
  %17 = alloca i32, align 4
  %18 = alloca i32, align 4
  %19 = alloca i32, align 4
  %20 = alloca i32, align 4
  %21 = alloca ptr, align 8
  %22 = alloca ptr, align 8
  %23 = alloca i32, align 4
  store ptr %0, ptr %12, align 8, !tbaa !34
  store ptr %1, ptr %13, align 8, !tbaa !34
  store ptr %2, ptr %14, align 8, !tbaa !26
  store ptr %3, ptr %15, align 8, !tbaa !26
  store ptr %4, ptr %16, align 8, !tbaa !13
  store i32 %5, ptr %17, align 4, !tbaa !38
  store i32 %6, ptr %18, align 4, !tbaa !38
  store i32 %7, ptr %19, align 4, !tbaa !38
  store i32 %8, ptr %20, align 4, !tbaa !38
  store ptr %9, ptr %21, align 8, !tbaa !24
  call void @llvm.lifetime.start.p0(i64 8, ptr %22) #8
  %24 = load ptr, ptr %12, align 8, !tbaa !34
  %25 = icmp ne ptr %24, null
  br i1 %25, label %28, label %26

26:                                               ; preds = %10
  %27 = load ptr, ptr @PyExc_ValueError, align 8, !tbaa !13
  call void @PyErr_SetString(ptr noundef %27, ptr noundef @.str.15)
  store ptr null, ptr %11, align 8
  store i32 1, ptr %23, align 4
  br label %75

28:                                               ; preds = %10
  %29 = load ptr, ptr %13, align 8, !tbaa !34
  %30 = icmp ne ptr %29, null
  br i1 %30, label %33, label %31

31:                                               ; preds = %28
  %32 = load ptr, ptr @PyExc_ValueError, align 8, !tbaa !13
  call void @PyErr_SetString(ptr noundef %32, ptr noundef @.str.16)
  store ptr null, ptr %11, align 8
  store i32 1, ptr %23, align 4
  br label %75

33:                                               ; preds = %28
  %34 = load ptr, ptr %21, align 8, !tbaa !24
  %35 = call ptr @_PyArena_Malloc(ptr noundef %34, i64 noundef 80)
  store ptr %35, ptr %22, align 8, !tbaa !39
  %36 = load ptr, ptr %22, align 8, !tbaa !39
  %37 = icmp ne ptr %36, null
  br i1 %37, label %39, label %38

38:                                               ; preds = %33
  store ptr null, ptr %11, align 8
  store i32 1, ptr %23, align 4
  br label %75

39:                                               ; preds = %33
  %40 = load ptr, ptr %22, align 8, !tbaa !39
  %41 = getelementptr inbounds nuw %struct._stmt, ptr %40, i32 0, i32 0
  store i32 10, ptr %41, align 8, !tbaa !41
  %42 = load ptr, ptr %12, align 8, !tbaa !34
  %43 = load ptr, ptr %22, align 8, !tbaa !39
  %44 = getelementptr inbounds nuw %struct._stmt, ptr %43, i32 0, i32 1
  %45 = getelementptr inbounds nuw %struct.anon.21, ptr %44, i32 0, i32 0
  store ptr %42, ptr %45, align 8, !tbaa !21
  %46 = load ptr, ptr %13, align 8, !tbaa !34
  %47 = load ptr, ptr %22, align 8, !tbaa !39
  %48 = getelementptr inbounds nuw %struct._stmt, ptr %47, i32 0, i32 1
  %49 = getelementptr inbounds nuw %struct.anon.21, ptr %48, i32 0, i32 1
  store ptr %46, ptr %49, align 8, !tbaa !21
  %50 = load ptr, ptr %14, align 8, !tbaa !26
  %51 = load ptr, ptr %22, align 8, !tbaa !39
  %52 = getelementptr inbounds nuw %struct._stmt, ptr %51, i32 0, i32 1
  %53 = getelementptr inbounds nuw %struct.anon.21, ptr %52, i32 0, i32 2
  store ptr %50, ptr %53, align 8, !tbaa !21
  %54 = load ptr, ptr %15, align 8, !tbaa !26
  %55 = load ptr, ptr %22, align 8, !tbaa !39
  %56 = getelementptr inbounds nuw %struct._stmt, ptr %55, i32 0, i32 1
  %57 = getelementptr inbounds nuw %struct.anon.21, ptr %56, i32 0, i32 3
  store ptr %54, ptr %57, align 8, !tbaa !21
  %58 = load ptr, ptr %16, align 8, !tbaa !13
  %59 = load ptr, ptr %22, align 8, !tbaa !39
  %60 = getelementptr inbounds nuw %struct._stmt, ptr %59, i32 0, i32 1
  %61 = getelementptr inbounds nuw %struct.anon.21, ptr %60, i32 0, i32 4
  store ptr %58, ptr %61, align 8, !tbaa !21
  %62 = load i32, ptr %17, align 4, !tbaa !38
  %63 = load ptr, ptr %22, align 8, !tbaa !39
  %64 = getelementptr inbounds nuw %struct._stmt, ptr %63, i32 0, i32 2
  store i32 %62, ptr %64, align 8, !tbaa !43
  %65 = load i32, ptr %18, align 4, !tbaa !38
  %66 = load ptr, ptr %22, align 8, !tbaa !39
  %67 = getelementptr inbounds nuw %struct._stmt, ptr %66, i32 0, i32 3
  store i32 %65, ptr %67, align 4, !tbaa !44
  %68 = load i32, ptr %19, align 4, !tbaa !38
  %69 = load ptr, ptr %22, align 8, !tbaa !39
  %70 = getelementptr inbounds nuw %struct._stmt, ptr %69, i32 0, i32 4
  store i32 %68, ptr %70, align 8, !tbaa !45
  %71 = load i32, ptr %20, align 4, !tbaa !38
  %72 = load ptr, ptr %22, align 8, !tbaa !39
  %73 = getelementptr inbounds nuw %struct._stmt, ptr %72, i32 0, i32 5
  store i32 %71, ptr %73, align 4, !tbaa !46
  %74 = load ptr, ptr %22, align 8, !tbaa !39
  store ptr %74, ptr %11, align 8
  store i32 1, ptr %23, align 4
  br label %75

75:                                               ; preds = %39, %38, %31, %26
  call void @llvm.lifetime.end.p0(i64 8, ptr %22) #8
  %76 = load ptr, ptr %11, align 8
  ret ptr %76
}