; Function Attrs: nounwind uwtable
define hidden ptr @_PyAST_For(ptr noundef %0, ptr noundef %1, ptr noundef %2, ptr noundef %3, ptr noundef %4, i32 noundef %5, i32 noundef %6, i32 noundef %7, i32 noundef %8, ptr noundef %9) local_unnamed_addr #0 {
  %.not = icmp eq ptr %0, null
  br i1 %.not, label %11, label %13

11:                                               ; preds = %10
  %12 = load ptr, ptr @PyExc_ValueError, align 8, !tbaa !4
  tail call void @PyErr_SetString(ptr noundef %12, ptr noundef nonnull @.str.15) #8
  br label %28

13:                                               ; preds = %10
  %.not27 = icmp eq ptr %1, null
  br i1 %.not27, label %14, label %16

14:                                               ; preds = %13
  %15 = load ptr, ptr @PyExc_ValueError, align 8, !tbaa !4
  tail call void @PyErr_SetString(ptr noundef %15, ptr noundef nonnull @.str.16) #8
  br label %28

16:                                               ; preds = %13
  %17 = tail call ptr @_PyArena_Malloc(ptr noundef %9, i64 noundef 80) #8
  %.not28 = icmp eq ptr %17, null
  br i1 %.not28, label %28, label %18

18:                                               ; preds = %16
  store i32 10, ptr %17, align 8, !tbaa !20
  %19 = getelementptr inbounds nuw i8, ptr %17, i64 8
  store ptr %0, ptr %19, align 8, !tbaa !9
  %20 = getelementptr inbounds nuw i8, ptr %17, i64 16
  store ptr %1, ptr %20, align 8, !tbaa !9
  %21 = getelementptr inbounds nuw i8, ptr %17, i64 24
  store ptr %2, ptr %21, align 8, !tbaa !9
  %22 = getelementptr inbounds nuw i8, ptr %17, i64 32
  store ptr %3, ptr %22, align 8, !tbaa !9
  %23 = getelementptr inbounds nuw i8, ptr %17, i64 40
  store ptr %4, ptr %23, align 8, !tbaa !9
  %24 = getelementptr inbounds nuw i8, ptr %17, i64 64
  store i32 %5, ptr %24, align 8, !tbaa !22
  %25 = getelementptr inbounds nuw i8, ptr %17, i64 68
  store i32 %6, ptr %25, align 4, !tbaa !23
  %26 = getelementptr inbounds nuw i8, ptr %17, i64 72
  store i32 %7, ptr %26, align 8, !tbaa !24
  %27 = getelementptr inbounds nuw i8, ptr %17, i64 76
  store i32 %8, ptr %27, align 4, !tbaa !25
  br label %28

28:                                               ; preds = %16, %18, %14, %11
  %.0 = phi ptr [ %17, %18 ], [ null, %14 ], [ null, %11 ], [ null, %16 ]
  ret ptr %.0
}